target datalayout = "e-m:e-p270:32:32-p271:32:32-p272:64:64-i64:64-i128:128-f80:128-n8:16:32:64-S128"
target triple = "x86_64-pc-linux-gnu"

%struct._object = type { %union.anon, ptr }
%union.anon = type { i64 }
%struct.tok_state = type { ptr, ptr, ptr, i32, ptr, ptr, ptr, ptr, i32, ptr, i32, i32, [100 x i32], i32, i32, ptr, ptr, i32, i32, i32, i32, i32, [200 x i8], [200 x i32], [200 x i32], ptr, [100 x i32], i32, i32, ptr, i32, ptr, ptr, ptr, ptr, ptr, ptr, ptr, ptr, i32, i32, ptr, i32, [150 x %struct._tokenizer_mode], i32, i32, i32, i32 }
%struct._tokenizer_mode = type { i32, i32, i32, i8, i32, i32, ptr, ptr, i32, i64, i64, i64, i64, ptr, i32, i32 }
%struct.token = type { i32, i32, i32, i32, i32, ptr, ptr, ptr }
%struct.anon = type { i32, i32 }

@.str = private unnamed_addr constant [9 x i8] c"<string>\00", align 1
@.str.5 = private unnamed_addr constant [2 x i8] c"r\00", align 1

; Function Attrs: alwaysinline nounwind uwtable
define internal void @Py_INCREF(ptr noundef %0) #6 {
  %2 = alloca ptr, align 8
  %3 = alloca i32, align 4
  %4 = alloca i32, align 4
  store ptr %0, ptr %2, align 8, !tbaa !29
  call void @llvm.lifetime.start.p0(i64 4, ptr %3) #9
  %5 = load ptr, ptr %2, align 8, !tbaa !29
  %6 = getelementptr inbounds nuw %struct._object, ptr %5, i32 0, i32 0
  %7 = getelementptr inbounds nuw %struct.anon, ptr %6, i32 0, i32 0
  %8 = load i32, ptr %7, align 8, !tbaa !28
  store i32 %8, ptr %3, align 4, !tbaa !41
  %9 = load i32, ptr %3, align 4, !tbaa !41
  %10 = icmp slt i32 %9, 0
  br i1 %10, label %11, label %12

11:                                               ; preds = %1
  store i32 1, ptr %4, align 4
  br label %18

12:                                               ; preds = %1
  %13 = load i32, ptr %3, align 4, !tbaa !41
  %14 = add i32 %13, 1
  %15 = load ptr, ptr %2, align 8, !tbaa !29
  %16 = getelementptr inbounds nuw %struct._object, ptr %15, i32 0, i32 0
  %17 = getelementptr inbounds nuw %struct.anon, ptr %16, i32 0, i32 0
  store i32 %14, ptr %17, align 8, !tbaa !28
  store i32 0, ptr %4, align 4
  br label %18

18:                                               ; preds = %12, %11
  call void @llvm.lifetime.end.p0(i64 4, ptr %3) #9
  %19 = load i32, ptr %4, align 4
  switch i32 %19, label %21 [
    i32 0, label %20
    i32 1, label %20
  ]

20:                                               ; preds = %18, %18
  ret void

21:                                               ; preds = %18
  unreachable
}

; Function Attrs: inlinehint nounwind uwtable
define internal ptr @_Py_NewRef(ptr noundef %0) #4 {
  %2 = alloca ptr, align 8
  store ptr %0, ptr %2, align 8, !tbaa !29
  %3 = load ptr, ptr %2, align 8, !tbaa !29
  call void @Py_INCREF(ptr noundef %3)
  %4 = load ptr, ptr %2, align 8, !tbaa !29
  ret ptr %4
}

; Function Attrs: nounwind uwtable
define hidden ptr @_PyTokenizer_FromFile(ptr noundef %0, ptr noundef %1, ptr noundef %2, ptr noundef %3) #0 {
  %5 = alloca ptr, align 8
  %6 = alloca ptr, align 8
  %7 = alloca ptr, align 8
  %8 = alloca ptr, align 8
  %9 = alloca ptr, align 8
  %10 = alloca ptr, align 8
  %11 = alloca i32, align 4
  store ptr %0, ptr %6, align 8, !tbaa !4
  store ptr %1, ptr %7, align 8, !tbaa !9
  store ptr %2, ptr %8, align 8, !tbaa !9
  store ptr %3, ptr %9, align 8, !tbaa !9
  call void @llvm.lifetime.start.p0(i64 8, ptr %10) #9
  %12 = call ptr @_PyTokenizer_tok_new()
  store ptr %12, ptr %10, align 8, !tbaa !11
  %13 = load ptr, ptr %10, align 8, !tbaa !11
  %14 = icmp eq ptr %13, null
  br i1 %14, label %15, label %16

15:                                               ; preds = %4
  store ptr null, ptr %5, align 8
  store i32 1, ptr %11, align 4
  br label %79

16:                                               ; preds = %4
  %17 = call ptr @PyMem_Malloc(i64 noundef 8192)
  %18 = load ptr, ptr %10, align 8, !tbaa !11
  %19 = getelementptr inbounds nuw %struct.tok_state, ptr %18, i32 0, i32 0
  store ptr %17, ptr %19, align 8, !tbaa !13
  %20 = icmp eq ptr %17, null
  br i1 %20, label %21, label %23

21:                                               ; preds = %16
  %22 = load ptr, ptr %10, align 8, !tbaa !11
  call void @_PyTokenizer_Free(ptr noundef %22)
  store ptr null, ptr %5, align 8
  store i32 1, ptr %11, align 4
  br label %79

23:                                               ; preds = %16
  %24 = load ptr, ptr %10, align 8, !tbaa !11
  %25 = getelementptr inbounds nuw %struct.tok_state, ptr %24, i32 0, i32 0
  %26 = load ptr, ptr %25, align 8, !tbaa !13
  %27 = load ptr, ptr %10, align 8, !tbaa !11
  %28 = getelementptr inbounds nuw %struct.tok_state, ptr %27, i32 0, i32 2
  store ptr %26, ptr %28, align 8, !tbaa !17
  %29 = load ptr, ptr %10, align 8, !tbaa !11
  %30 = getelementptr inbounds nuw %struct.tok_state, ptr %29, i32 0, i32 1
  store ptr %26, ptr %30, align 8, !tbaa !18
  %31 = load ptr, ptr %10, align 8, !tbaa !11
  %32 = getelementptr inbounds nuw %struct.tok_state, ptr %31, i32 0, i32 0
  %33 = load ptr, ptr %32, align 8, !tbaa !13
  %34 = getelementptr i8, ptr %33, i64 8192
  %35 = load ptr, ptr %10, align 8, !tbaa !11
  %36 = getelementptr inbounds nuw %struct.tok_state, ptr %35, i32 0, i32 6
  store ptr %34, ptr %36, align 8, !tbaa !19
  %37 = load ptr, ptr %6, align 8, !tbaa !4
  %38 = load ptr, ptr %10, align 8, !tbaa !11
  %39 = getelementptr inbounds nuw %struct.tok_state, ptr %38, i32 0, i32 9
  store ptr %37, ptr %39, align 8, !tbaa !20
  %40 = load ptr, ptr %8, align 8, !tbaa !9
  %41 = load ptr, ptr %10, align 8, !tbaa !11
  %42 = getelementptr inbounds nuw %struct.tok_state, ptr %41, i32 0, i32 15
  store ptr %40, ptr %42, align 8, !tbaa !21
  %43 = load ptr, ptr %9, align 8, !tbaa !9
  %44 = load ptr, ptr %10, align 8, !tbaa !11
  %45 = getelementptr inbounds nuw %struct.tok_state, ptr %44, i32 0, i32 16
  store ptr %43, ptr %45, align 8, !tbaa !22
  %46 = load ptr, ptr %8, align 8, !tbaa !9
  %47 = icmp ne ptr %46, null
  br i1 %47, label %51, label %48

48:                                               ; preds = %23
  %49 = load ptr, ptr %9, align 8, !tbaa !9
  %50 = icmp ne ptr %49, null
  br i1 %50, label %51, label %54

51:                                               ; preds = %48, %23
  %52 = load ptr, ptr %10, align 8, !tbaa !11
  %53 = getelementptr inbounds nuw %struct.tok_state, ptr %52, i32 0, i32 41
  store ptr @tok_underflow_interactive, ptr %53, align 8, !tbaa !23
  br label %57

54:                                               ; preds = %48
  %55 = load ptr, ptr %10, align 8, !tbaa !11
  %56 = getelementptr inbounds nuw %struct.tok_state, ptr %55, i32 0, i32 41
  store ptr @tok_underflow_file, ptr %56, align 8, !tbaa !23
  br label %57

57:                                               ; preds = %54, %51
  %58 = load ptr, ptr %7, align 8, !tbaa !9
  %59 = icmp ne ptr %58, null
  br i1 %59, label %60, label %77

60:                                               ; preds = %57
  %61 = load ptr, ptr %7, align 8, !tbaa !9
  %62 = load ptr, ptr %7, align 8, !tbaa !9
  %63 = call i64 @strlen(ptr noundef %62) #10
  %64 = load ptr, ptr %10, align 8, !tbaa !11
  %65 = call ptr @_PyTokenizer_new_string(ptr noundef %61, i64 noundef %63, ptr noundef %64)
  %66 = load ptr, ptr %10, align 8, !tbaa !11
  %67 = getelementptr inbounds nuw %struct.tok_state, ptr %66, i32 0, i32 29
  store ptr %65, ptr %67, align 8, !tbaa !24
  %68 = load ptr, ptr %10, align 8, !tbaa !11
  %69 = getelementptr inbounds nuw %struct.tok_state, ptr %68, i32 0, i32 29
  %70 = load ptr, ptr %69, align 8, !tbaa !24
  %71 = icmp ne ptr %70, null
  br i1 %71, label %74, label %72

72:                                               ; preds = %60
  %73 = load ptr, ptr %10, align 8, !tbaa !11
  call void @_PyTokenizer_Free(ptr noundef %73)
  store ptr null, ptr %5, align 8
  store i32 1, ptr %11, align 4
  br label %79

74:                                               ; preds = %60
  %75 = load ptr, ptr %10, align 8, !tbaa !11
  %76 = getelementptr inbounds nuw %struct.tok_state, ptr %75, i32 0, i32 27
  store i32 2, ptr %76, align 8, !tbaa !25
  br label %77

77:                                               ; preds = %74, %57
  %78 = load ptr, ptr %10, align 8, !tbaa !11
  store ptr %78, ptr %5, align 8
  store i32 1, ptr %11, align 4
  br label %79

79:                                               ; preds = %77, %72, %21, %15
  call void @llvm.lifetime.end.p0(i64 8, ptr %10) #9
  %80 = load ptr, ptr %5, align 8
  ret ptr %80
}

; Function Attrs: nounwind uwtable
define internal ptr @fdopen_borrow(i32 noundef %0) #0 {
  %2 = alloca ptr, align 8
  %3 = alloca i32, align 4
  store i32 %0, ptr %3, align 4, !tbaa !41
  %4 = load i32, ptr %3, align 4, !tbaa !41
  %5 = call i32 @_Py_dup(i32 noundef %4)
  store i32 %5, ptr %3, align 4, !tbaa !41
  %6 = load i32, ptr %3, align 4, !tbaa !41
  %7 = icmp slt i32 %6, 0
  br i1 %7, label %8, label %9

8:                                                ; preds = %1
  store ptr null, ptr %2, align 8
  br label %12

9:                                                ; preds = %1
  %10 = load i32, ptr %3, align 4, !tbaa !41
  %11 = call noalias ptr @fdopen(i32 noundef %10, ptr noundef @.str.5) #9
  store ptr %11, ptr %2, align 8
  br label %12

12:                                               ; preds = %9, %8
  %13 = load ptr, ptr %2, align 8
  ret ptr %13
}

; Function Attrs: nounwind uwtable
define hidden ptr @_PyTokenizer_FindEncodingFilename(i32 noundef %0, ptr noundef %1) #0 {
  %3 = alloca ptr, align 8
  %4 = alloca i32, align 4
  %5 = alloca ptr, align 8
  %6 = alloca ptr, align 8
  %7 = alloca ptr, align 8
  %8 = alloca ptr, align 8
  %9 = alloca i32, align 4
  %10 = alloca %struct.token, align 8
  store i32 %0, ptr %4, align 4, !tbaa !41
  store ptr %1, ptr %5, align 8, !tbaa !29
  call void @llvm.lifetime.start.p0(i64 8, ptr %6) #9
  call void @llvm.lifetime.start.p0(i64 8, ptr %7) #9
  call void @llvm.lifetime.start.p0(i64 8, ptr %8) #9
  store ptr null, ptr %8, align 8, !tbaa !9
  %11 = load i32, ptr %4, align 4, !tbaa !41
  %12 = call ptr @fdopen_borrow(i32 noundef %11)
  store ptr %12, ptr %7, align 8, !tbaa !4
  %13 = load ptr, ptr %7, align 8, !tbaa !4
  %14 = icmp eq ptr %13, null
  br i1 %14, label %15, label %16

15:                                               ; preds = %2
  store ptr null, ptr %3, align 8
  store i32 1, ptr %9, align 4
  br label %90

16:                                               ; preds = %2
  %17 = load ptr, ptr %7, align 8, !tbaa !4
  %18 = call ptr @_PyTokenizer_FromFile(ptr noundef %17, ptr noundef null, ptr noundef null, ptr noundef null)
  store ptr %18, ptr %6, align 8, !tbaa !11
  %19 = load ptr, ptr %6, align 8, !tbaa !11
  %20 = icmp eq ptr %19, null
  br i1 %20, label %21, label %24

21:                                               ; preds = %16
  %22 = load ptr, ptr %7, align 8, !tbaa !4
  %23 = call i32 @fclose(ptr noundef %22)
  store ptr null, ptr %3, align 8
  store i32 1, ptr %9, align 4
  br label %90

24:                                               ; preds = %16
  %25 = load ptr, ptr %5, align 8, !tbaa !29
  %26 = icmp ne ptr %25, null
  br i1 %26, label %27, label %32

27:                                               ; preds = %24
  %28 = load ptr, ptr %5, align 8, !tbaa !29
  %29 = call ptr @_Py_NewRef(ptr noundef %28)
  %30 = load ptr, ptr %6, align 8, !tbaa !11
  %31 = getelementptr inbounds nuw %struct.tok_state, ptr %30, i32 0, i32 25
  store ptr %29, ptr %31, align 8, !tbaa !42
  br label %46

32:                                               ; preds = %24
  %33 = call ptr @PyUnicode_FromString(ptr noundef @.str)
  %34 = load ptr, ptr %6, align 8, !tbaa !11
  %35 = getelementptr inbounds nuw %struct.tok_state, ptr %34, i32 0, i32 25
  store ptr %33, ptr %35, align 8, !tbaa !42
  %36 = load ptr, ptr %6, align 8, !tbaa !11
  %37 = getelementptr inbounds nuw %struct.tok_state, ptr %36, i32 0, i32 25
  %38 = load ptr, ptr %37, align 8, !tbaa !42
  %39 = icmp eq ptr %38, null
  br i1 %39, label %40, label %45

40:                                               ; preds = %32
  %41 = load ptr, ptr %7, align 8, !tbaa !4
  %42 = call i32 @fclose(ptr noundef %41)
  %43 = load ptr, ptr %6, align 8, !tbaa !11
  call void @_PyTokenizer_Free(ptr noundef %43)
  %44 = load ptr, ptr %8, align 8, !tbaa !9
  store ptr %44, ptr %3, align 8
  store i32 1, ptr %9, align 4
  br label %90

45:                                               ; preds = %32
  br label %46

46:                                               ; preds = %45, %27
  call void @llvm.lifetime.start.p0(i64 48, ptr %10) #9
  %47 = load ptr, ptr %6, align 8, !tbaa !11
  %48 = getelementptr inbounds nuw %struct.tok_state, ptr %47, i32 0, i32 42
  store i32 0, ptr %48, align 8, !tbaa !43
  br label %49

49:                                               ; preds = %61, %46
  %50 = load ptr, ptr %6, align 8, !tbaa !11
  %51 = getelementptr inbounds nuw %struct.tok_state, ptr %50, i32 0, i32 17
  %52 = load i32, ptr %51, align 8, !tbaa !35
  %53 = icmp slt i32 %52, 2
  br i1 %53, label %54, label %59

54:                                               ; preds = %49
  %55 = load ptr, ptr %6, align 8, !tbaa !11
  %56 = getelementptr inbounds nuw %struct.tok_state, ptr %55, i32 0, i32 8
  %57 = load i32, ptr %56, align 8, !tbaa !27
  %58 = icmp eq i32 %57, 10
  br label %59

59:                                               ; preds = %54, %49
  %60 = phi i1 [ false, %49 ], [ %58, %54 ]
  br i1 %60, label %61, label %64

61:                                               ; preds = %59
  call void @_PyToken_Init(ptr noundef %10)
  %62 = load ptr, ptr %6, align 8, !tbaa !11
  %63 = call i32 @_PyTokenizer_Get(ptr noundef %62, ptr noundef %10)
  call void @_PyToken_Free(ptr noundef %10)
  br label %49, !llvm.loop !44

64:                                               ; preds = %59
  %65 = load ptr, ptr %7, align 8, !tbaa !4
  %66 = call i32 @fclose(ptr noundef %65)
  %67 = load ptr, ptr %6, align 8, !tbaa !11
  %68 = getelementptr inbounds nuw %struct.tok_state, ptr %67, i32 0, i32 29
  %69 = load ptr, ptr %68, align 8, !tbaa !24
  %70 = icmp ne ptr %69, null
  br i1 %70, label %71, label %87

71:                                               ; preds = %64
  %72 = load ptr, ptr %6, align 8, !tbaa !11
  %73 = getelementptr inbounds nuw %struct.tok_state, ptr %72, i32 0, i32 29
  %74 = load ptr, ptr %73, align 8, !tbaa !24
  %75 = call i64 @strlen(ptr noundef %74) #10
  %76 = add i64 %75, 1
  %77 = call ptr @PyMem_Malloc(i64 noundef %76)
  store ptr %77, ptr %8, align 8, !tbaa !9
  %78 = load ptr, ptr %8, align 8, !tbaa !9
  %79 = icmp ne ptr %78, null
  br i1 %79, label %80, label %86

80:                                               ; preds = %71
  %81 = load ptr, ptr %8, align 8, !tbaa !9
  %82 = load ptr, ptr %6, align 8, !tbaa !11
  %83 = getelementptr inbounds nuw %struct.tok_state, ptr %82, i32 0, i32 29
  %84 = load ptr, ptr %83, align 8, !tbaa !24
  %85 = call ptr @strcpy(ptr noundef %81, ptr noundef %84) #9
  br label %86

86:                                               ; preds = %80, %71
  br label %87

87:                                               ; preds = %86, %64
  %88 = load ptr, ptr %6, align 8, !tbaa !11
  call void @_PyTokenizer_Free(ptr noundef %88)
  %89 = load ptr, ptr %8, align 8, !tbaa !9
  store ptr %89, ptr %3, align 8
  store i32 1, ptr %9, align 4
  call void @llvm.lifetime.end.p0(i64 48, ptr %10) #9
  br label %90

90:                                               ; preds = %87, %40, %21, %15
  call void @llvm.lifetime.end.p0(i64 8, ptr %8) #9
  call void @llvm.lifetime.end.p0(i64 8, ptr %7) #9
  call void @llvm.lifetime.end.p0(i64 8, ptr %6) #9
  %91 = load ptr, ptr %3, align 8
  ret ptr %91
}