; Function Attrs: nounwind uwtable
define hidden ptr @_PyTokenizer_FindEncodingFilename(i32 noundef %0, ptr noundef %1) local_unnamed_addr #0 {
  %3 = alloca %struct.token, align 8
  %4 = tail call i32 @_Py_dup(i32 noundef %0) #11
  %5 = icmp slt i32 %4, 0
  br i1 %5, label %fdopen_borrow.exit.thread, label %fdopen_borrow.exit

fdopen_borrow.exit:                               ; preds = %2
  %6 = tail call noalias ptr @fdopen(i32 noundef %4, ptr noundef nonnull @.str.5) #11
  %7 = icmp eq ptr %6, null
  br i1 %7, label %fdopen_borrow.exit.thread, label %8

8:                                                ; preds = %fdopen_borrow.exit
  %9 = tail call ptr @_PyTokenizer_tok_new() #11
  %10 = icmp eq ptr %9, null
  br i1 %10, label %15, label %11

11:                                               ; preds = %8
  %12 = tail call ptr @PyMem_Malloc(i64 noundef 8192) #11
  store ptr %12, ptr %9, align 8, !tbaa !4
  %13 = icmp eq ptr %12, null
  br i1 %13, label %14, label %17

14:                                               ; preds = %11
  tail call void @_PyTokenizer_Free(ptr noundef nonnull %9) #11
  br label %15

15:                                               ; preds = %14, %8
  %16 = tail call i32 @fclose(ptr noundef nonnull %6)
  br label %fdopen_borrow.exit.thread

17:                                               ; preds = %11
  %18 = getelementptr inbounds nuw i8, ptr %9, i64 16
  store ptr %12, ptr %18, align 8, !tbaa !13
  %19 = getelementptr inbounds nuw i8, ptr %9, i64 8
  store ptr %12, ptr %19, align 8, !tbaa !14
  %20 = getelementptr i8, ptr %12, i64 8192
  %21 = getelementptr inbounds nuw i8, ptr %9, i64 48
  store ptr %20, ptr %21, align 8, !tbaa !15
  %22 = getelementptr inbounds nuw i8, ptr %9, i64 72
  store ptr %6, ptr %22, align 8, !tbaa !16
  %23 = getelementptr inbounds nuw i8, ptr %9, i64 496
  %24 = getelementptr inbounds nuw i8, ptr %9, i64 2840
  tail call void @llvm.memset.p0.i64(ptr noundef nonnull align 8 dereferenceable(16) %23, i8 0, i64 16, i1 false)
  store ptr @tok_underflow_file, ptr %24, align 8, !tbaa !19
  %.not = icmp eq ptr %1, null
  br i1 %.not, label %31, label %25

25:                                               ; preds = %17
  %26 = load i32, ptr %1, align 8, !tbaa !25
  %27 = icmp slt i32 %26, 0
  br i1 %27, label %_Py_NewRef.exit, label %28

28:                                               ; preds = %25
  %29 = add nuw i32 %26, 1
  store i32 %29, ptr %1, align 8, !tbaa !25
  br label %_Py_NewRef.exit

_Py_NewRef.exit:                                  ; preds = %25, %28
  %30 = getelementptr inbounds nuw i8, ptr %9, i64 2336
  store ptr %1, ptr %30, align 8, !tbaa !46
  br label %37

31:                                               ; preds = %17
  %32 = tail call ptr @PyUnicode_FromString(ptr noundef nonnull @.str) #11
  %33 = getelementptr inbounds nuw i8, ptr %9, i64 2336
  store ptr %32, ptr %33, align 8, !tbaa !46
  %34 = icmp eq ptr %32, null
  br i1 %34, label %35, label %37

35:                                               ; preds = %31
  %36 = tail call i32 @fclose(ptr noundef nonnull %6)
  tail call void @_PyTokenizer_Free(ptr noundef nonnull %9) #11
  br label %fdopen_borrow.exit.thread

37:                                               ; preds = %31, %_Py_NewRef.exit
  call void @llvm.lifetime.start.p0(i64 48, ptr nonnull %3) #11
  %38 = getelementptr inbounds nuw i8, ptr %9, i64 2848
  store i32 0, ptr %38, align 8, !tbaa !47
  %39 = getelementptr inbounds nuw i8, ptr %9, i64 64
  %40 = getelementptr inbounds nuw i8, ptr %9, i64 512
  %41 = load i32, ptr %40, align 8, !tbaa !37
  %42 = icmp slt i32 %41, 2
  br i1 %42, label %.lr.ph, label %.critedge

.lr.ph:                                           ; preds = %37, %45
  %43 = load i32, ptr %39, align 8, !tbaa !23
  %44 = icmp eq i32 %43, 10
  br i1 %44, label %45, label %.critedge

45:                                               ; preds = %.lr.ph
  call void @_PyToken_Init(ptr noundef nonnull %3) #11
  %46 = call i32 @_PyTokenizer_Get(ptr noundef nonnull %9, ptr noundef nonnull %3) #11
  call void @_PyToken_Free(ptr noundef nonnull %3) #11
  %47 = load i32, ptr %40, align 8, !tbaa !37
  %48 = icmp slt i32 %47, 2
  br i1 %48, label %.lr.ph, label %.critedge, !llvm.loop !48

.critedge:                                        ; preds = %.lr.ph, %45, %37
  %49 = call i32 @fclose(ptr noundef nonnull %6)
  %50 = getelementptr inbounds nuw i8, ptr %9, i64 2752
  %51 = load ptr, ptr %50, align 8, !tbaa !20
  %.not31 = icmp eq ptr %51, null
  br i1 %.not31, label %59, label %52

52:                                               ; preds = %.critedge
  %53 = call i64 @strlen(ptr noundef nonnull dereferenceable(1) %51) #12
  %54 = add i64 %53, 1
  %55 = call ptr @PyMem_Malloc(i64 noundef %54) #11
  %.not32 = icmp eq ptr %55, null
  br i1 %.not32, label %59, label %56

56:                                               ; preds = %52
  %57 = load ptr, ptr %50, align 8, !tbaa !20
  %58 = call ptr @strcpy(ptr noundef nonnull dereferenceable(1) %55, ptr noundef nonnull dereferenceable(1) %57) #11
  br label %59

59:                                               ; preds = %52, %56, %.critedge
  %.0 = phi ptr [ %55, %56 ], [ null, %52 ], [ null, %.critedge ]
  call void @_PyTokenizer_Free(ptr noundef nonnull %9) #11
  call void @llvm.lifetime.end.p0(i64 48, ptr nonnull %3) #11
  br label %fdopen_borrow.exit.thread

fdopen_borrow.exit.thread:                        ; preds = %2, %fdopen_borrow.exit, %59, %35, %15
  %.025 = phi ptr [ null, %15 ], [ %.0, %59 ], [ null, %35 ], [ null, %fdopen_borrow.exit ], [ null, %2 ]
  ret ptr %.025
}